; Function Attrs: mustprogress uwtable
define void @_ZN3zmq11io_thread_t12process_stopEv(ptr nocapture noundef nonnull readonly align 8 dereferenceable(224) %this) unnamed_addr #0 align 2 {
entry:
  %_mailbox_handle = getelementptr inbounds i8, ptr %this, i64 208
  %0 = load ptr, ptr %_mailbox_handle, align 8
  %tobool.not = icmp eq ptr %0, null
  br i1 %tobool.not, label %if.then, label %do.end

if.then:                                          ; preds = %entry
  %1 = load ptr, ptr @stderr, align 8
  %call = tail call i32 (ptr, ptr, ...) @fprintf(ptr noundef %1, ptr noundef nonnull @.str.5, ptr noundef nonnull @.str.8, ptr noundef nonnull @.str.1, i32 noundef 91) #13
  %2 = load ptr, ptr @stderr, align 8
  %call2 = tail call i32 @fflush(ptr noundef %2)
  tail call void @_ZN3zmq9zmq_abortEPKc(ptr noundef nonnull @.str.8)
  %.pre = load ptr, ptr %_mailbox_handle, align 8
  br label %do.end

do.end:                                           ; preds = %entry, %if.then
  %3 = phi ptr [ %0, %entry ], [ %.pre, %if.then ]
  %_poller = getelementptr inbounds i8, ptr %this, i64 216
  %4 = load ptr, ptr %_poller, align 8
  tail call void @_ZN3zmq7epoll_t5rm_fdEPv(ptr noundef nonnull align 8 dereferenceable(224) %4, ptr noundef %3)
  %5 = load ptr, ptr %_poller, align 8
  tail call void @_ZN3zmq7epoll_t4stopEv(ptr noundef nonnull align 8 dereferenceable(224) %5)
  ret void
}